target datalayout = "e-m:e-p270:32:32-p271:32:32-p272:64:64-i64:64-i128:128-f80:128-n8:16:32:64-S128"
target triple = "x86_64-pc-linux-gnu"

%struct.RelationData = type { %struct.RelFileLocator, ptr, i32, i32, i8, i8, i8, i8, i8, i32, i32, i32, i32, ptr, ptr, i32, %struct.LockInfoData, ptr, ptr, ptr, ptr, ptr, i8, ptr, ptr, ptr, ptr, ptr, ptr, i32, ptr, i8, ptr, ptr, i32, i8, i32, ptr, i8, ptr, ptr, ptr, ptr, ptr, ptr, ptr, i32, ptr, ptr, ptr, ptr, ptr, ptr, ptr, ptr, ptr, ptr, ptr, ptr, ptr, ptr, ptr, ptr, ptr, ptr, ptr, i32, i8, ptr }
%struct.RelFileLocator = type { i32, i32, i32 }
%struct.LockInfoData = type { %struct.LockRelId }
%struct.LockRelId = type { i32, i32 }
%struct.FormData_pg_class = type { i32, %struct.nameData, i32, i32, i32, i32, i32, i32, i32, i32, float, i32, i32, i8, i8, i8, i8, i16, i16, i8, i8, i8, i8, i8, i8, i8, i8, i32, i32, i32 }
%struct.nameData = type { [64 x i8] }
%struct.HeapTupleData = type { i32, %struct.ItemPointerData, i32, ptr }
%struct.ItemPointerData = type { %struct.BlockIdData, i16 }
%struct.BlockIdData = type { i16, i16 }
%struct.HeapTupleHeaderData = type { %union.anon, %struct.ItemPointerData, i16, i16, i8, [0 x i8] }
%union.anon = type { %struct.HeapTupleFields }
%struct.HeapTupleFields = type { i32, i32, %union.anon.0 }
%union.anon.0 = type { i32 }
%struct.ObjectAddress = type { i32, i32, i32 }
%struct.ReindexParams = type { i32, i32 }

@.str.2 = private unnamed_addr constant [10 x i8] c"cluster.c\00", align 1
@.str.18 = private unnamed_addr constant [36 x i8] c"cache lookup failed for relation %u\00", align 1
@__func__.finish_heap_swap = private unnamed_addr constant [17 x i8] c"finish_heap_swap\00", align 1
@.str.21 = private unnamed_addr constant [12 x i8] c"pg_toast_%u\00", align 1
@.str.22 = private unnamed_addr constant [18 x i8] c"pg_toast_%u_index\00", align 1

; Function Attrs: inlinehint nounwind uwtable
define internal ptr @GETSTRUCT(ptr noundef %0) #7 {
  %2 = alloca ptr, align 8
  store ptr %0, ptr %2, align 8
  %3 = load ptr, ptr %2, align 8
  %4 = getelementptr inbounds nuw %struct.HeapTupleData, ptr %3, i32 0, i32 3
  %5 = load ptr, ptr %4, align 8
  %6 = load ptr, ptr %2, align 8
  %7 = getelementptr inbounds nuw %struct.HeapTupleData, ptr %6, i32 0, i32 3
  %8 = load ptr, ptr %7, align 8
  %9 = getelementptr inbounds nuw %struct.HeapTupleHeaderData, ptr %8, i32 0, i32 4
  %10 = load i8, ptr %9, align 2
  %11 = zext i8 %10 to i32
  %12 = sext i32 %11 to i64
  %13 = getelementptr inbounds i8, ptr %5, i64 %12
  ret ptr %13
}

; Function Attrs: inlinehint nounwind uwtable
define internal i64 @ObjectIdGetDatum(i32 noundef %0) #7 {
  %2 = alloca i32, align 4
  store i32 %0, ptr %2, align 4
  %3 = load i32, ptr %2, align 4
  %4 = zext i32 %3 to i64
  ret i64 %4
}

; Function Attrs: nounwind uwtable
define dso_local void @finish_heap_swap(i32 noundef %0, i32 noundef %1, i1 noundef zeroext %2, i1 noundef zeroext %3, i1 noundef zeroext %4, i1 noundef zeroext %5, i32 noundef %6, i32 noundef %7, i8 noundef signext %8) #0 {
  %10 = alloca i32, align 4
  %11 = alloca i32, align 4
  %12 = alloca i8, align 1
  %13 = alloca i8, align 1
  %14 = alloca i8, align 1
  %15 = alloca i8, align 1
  %16 = alloca i32, align 4
  %17 = alloca i32, align 4
  %18 = alloca i8, align 1
  %19 = alloca %struct.ObjectAddress, align 4
  %20 = alloca [4 x i32], align 16
  %21 = alloca i32, align 4
  %22 = alloca %struct.ReindexParams, align 4
  %23 = alloca i32, align 4
  %24 = alloca ptr, align 8
  %25 = alloca ptr, align 8
  %26 = alloca ptr, align 8
  %27 = alloca ptr, align 8
  %28 = alloca i32, align 4
  %29 = alloca [64 x i8], align 16
  %30 = alloca ptr, align 8
  store i32 %0, ptr %10, align 4
  store i32 %1, ptr %11, align 4
  %31 = zext i1 %2 to i8
  store i8 %31, ptr %12, align 1
  %32 = zext i1 %3 to i8
  store i8 %32, ptr %13, align 1
  %33 = zext i1 %4 to i8
  store i8 %33, ptr %14, align 1
  %34 = zext i1 %5 to i8
  store i8 %34, ptr %15, align 1
  store i32 %6, ptr %16, align 4
  store i32 %7, ptr %17, align 4
  store i8 %8, ptr %18, align 1
  call void @llvm.lifetime.start.p0(i64 12, ptr %19) #9
  call void @llvm.lifetime.start.p0(i64 16, ptr %20) #9
  call void @llvm.lifetime.start.p0(i64 4, ptr %21) #9
  call void @llvm.lifetime.start.p0(i64 8, ptr %22) #9
  call void @llvm.memset.p0.i64(ptr align 4 %22, i8 0, i64 8, i1 false)
  call void @llvm.lifetime.start.p0(i64 4, ptr %23) #9
  call void @pgstat_progress_update_param(i32 noundef 1, i64 noundef 5)
  %35 = getelementptr inbounds [4 x i32], ptr %20, i64 0, i64 0
  call void @llvm.memset.p0.i64(ptr align 16 %35, i8 0, i64 16, i1 false)
  %36 = load i32, ptr %10, align 4
  %37 = load i32, ptr %11, align 4
  %38 = load i32, ptr %10, align 4
  %39 = icmp eq i32 %38, 1259
  %40 = load i8, ptr %13, align 1, !range !6, !noundef !7
  %41 = trunc i8 %40 to i1
  %42 = load i8, ptr %15, align 1, !range !6, !noundef !7
  %43 = trunc i8 %42 to i1
  %44 = load i32, ptr %16, align 4
  %45 = load i32, ptr %17, align 4
  %46 = getelementptr inbounds [4 x i32], ptr %20, i64 0, i64 0
  call void @swap_relation_files(i32 noundef %36, i32 noundef %37, i1 noundef zeroext %39, i1 noundef zeroext %41, i1 noundef zeroext %43, i32 noundef %44, i32 noundef %45, ptr noundef %46)
  %47 = load i8, ptr %12, align 1, !range !6, !noundef !7
  %48 = trunc i8 %47 to i1
  br i1 %48, label %49, label %51

49:                                               ; preds = %9
  %50 = load i32, ptr %10, align 4
  call void @CacheInvalidateCatalog(i32 noundef %50)
  br label %51

51:                                               ; preds = %49, %9
  store i32 2, ptr %21, align 4
  %52 = load i8, ptr %14, align 1, !range !6, !noundef !7
  %53 = trunc i8 %52 to i1
  br i1 %53, label %54, label %57

54:                                               ; preds = %51
  %55 = load i32, ptr %21, align 4
  %56 = or i32 %55, 4
  store i32 %56, ptr %21, align 4
  br label %57

57:                                               ; preds = %54, %51
  %58 = load i8, ptr %18, align 1
  %59 = sext i8 %58 to i32
  %60 = icmp eq i32 %59, 117
  br i1 %60, label %61, label %64

61:                                               ; preds = %57
  %62 = load i32, ptr %21, align 4
  %63 = or i32 %62, 8
  store i32 %63, ptr %21, align 4
  br label %72

64:                                               ; preds = %57
  %65 = load i8, ptr %18, align 1
  %66 = sext i8 %65 to i32
  %67 = icmp eq i32 %66, 112
  br i1 %67, label %68, label %71

68:                                               ; preds = %64
  %69 = load i32, ptr %21, align 4
  %70 = or i32 %69, 16
  store i32 %70, ptr %21, align 4
  br label %71

71:                                               ; preds = %68, %64
  br label %72

72:                                               ; preds = %71, %61
  call void @pgstat_progress_update_param(i32 noundef 1, i64 noundef 6)
  %73 = load i32, ptr %10, align 4
  %74 = load i32, ptr %21, align 4
  %75 = call zeroext i1 @reindex_relation(ptr noundef null, i32 noundef %73, i32 noundef %74, ptr noundef %22)
  call void @pgstat_progress_update_param(i32 noundef 1, i64 noundef 7)
  %76 = load i32, ptr %10, align 4
  %77 = icmp eq i32 %76, 1259
  br i1 %77, label %78, label %111

78:                                               ; preds = %72
  call void @llvm.lifetime.start.p0(i64 8, ptr %24) #9
  call void @llvm.lifetime.start.p0(i64 8, ptr %25) #9
  call void @llvm.lifetime.start.p0(i64 8, ptr %26) #9
  %79 = call ptr @table_open(i32 noundef 1259, i32 noundef 3)
  store ptr %79, ptr %24, align 8
  %80 = load i32, ptr %10, align 4
  %81 = call i64 @ObjectIdGetDatum(i32 noundef %80)
  %82 = call ptr @SearchSysCacheCopy(i32 noundef 57, i64 noundef %81, i64 noundef 0, i64 noundef 0, i64 noundef 0)
  store ptr %82, ptr %25, align 8
  %83 = load ptr, ptr %25, align 8
  %84 = icmp ne ptr %83, null
  br i1 %84, label %97, label %85

85:                                               ; preds = %78
  br label %86

86:                                               ; preds = %85
  br i1 true, label %87, label %89

87:                                               ; preds = %86
  %88 = call zeroext i1 @errstart_cold(i32 noundef 21, ptr noundef null) #11
  br i1 %88, label %91, label %94

89:                                               ; preds = %86
  %90 = call zeroext i1 @errstart(i32 noundef 21, ptr noundef null)
  br i1 %90, label %91, label %94

91:                                               ; preds = %89, %87
  %92 = load i32, ptr %10, align 4
  %93 = call i32 (ptr, ...) @errmsg_internal(ptr noundef @.str.18, i32 noundef %92)
  call void @errfinish(ptr noundef @.str.2, i32 noundef 1538, ptr noundef @__func__.finish_heap_swap)
  br label %94

94:                                               ; preds = %91, %89, %87
  unreachable

95:                                               ; No predecessors!
  br label %96

96:                                               ; preds = %95
  br label %97

97:                                               ; preds = %96, %78
  %98 = load ptr, ptr %25, align 8
  %99 = call ptr @GETSTRUCT(ptr noundef %98)
  store ptr %99, ptr %26, align 8
  %100 = load i32, ptr %16, align 4
  %101 = load ptr, ptr %26, align 8
  %102 = getelementptr inbounds nuw %struct.FormData_pg_class, ptr %101, i32 0, i32 28
  store i32 %100, ptr %102, align 4
  %103 = load i32, ptr %17, align 4
  %104 = load ptr, ptr %26, align 8
  %105 = getelementptr inbounds nuw %struct.FormData_pg_class, ptr %104, i32 0, i32 29
  store i32 %103, ptr %105, align 4
  %106 = load ptr, ptr %24, align 8
  %107 = load ptr, ptr %25, align 8
  %108 = getelementptr inbounds nuw %struct.HeapTupleData, ptr %107, i32 0, i32 1
  %109 = load ptr, ptr %25, align 8
  call void @CatalogTupleUpdate(ptr noundef %106, ptr noundef %108, ptr noundef %109)
  %110 = load ptr, ptr %24, align 8
  call void @table_close(ptr noundef %110, i32 noundef 3)
  call void @llvm.lifetime.end.p0(i64 8, ptr %26) #9
  call void @llvm.lifetime.end.p0(i64 8, ptr %25) #9
  call void @llvm.lifetime.end.p0(i64 8, ptr %24) #9
  br label %111

111:                                              ; preds = %97, %72
  %112 = getelementptr inbounds nuw %struct.ObjectAddress, ptr %19, i32 0, i32 0
  store i32 1259, ptr %112, align 4
  %113 = load i32, ptr %11, align 4
  %114 = getelementptr inbounds nuw %struct.ObjectAddress, ptr %19, i32 0, i32 1
  store i32 %113, ptr %114, align 4
  %115 = getelementptr inbounds nuw %struct.ObjectAddress, ptr %19, i32 0, i32 2
  store i32 0, ptr %115, align 4
  call void @performDeletion(ptr noundef %19, i32 noundef 0, i32 noundef 1)
  store i32 0, ptr %23, align 4
  br label %116

116:                                              ; preds = %127, %111
  %117 = load i32, ptr %23, align 4
  %118 = sext i32 %117 to i64
  %119 = getelementptr inbounds [4 x i32], ptr %20, i64 0, i64 %118
  %120 = load i32, ptr %119, align 4
  %121 = icmp ne i32 %120, 0
  br i1 %121, label %122, label %130

122:                                              ; preds = %116
  %123 = load i32, ptr %23, align 4
  %124 = sext i32 %123 to i64
  %125 = getelementptr inbounds [4 x i32], ptr %20, i64 0, i64 %124
  %126 = load i32, ptr %125, align 4
  call void @RelationMapRemoveMapping(i32 noundef %126)
  br label %127

127:                                              ; preds = %122
  %128 = load i32, ptr %23, align 4
  %129 = add i32 %128, 1
  store i32 %129, ptr %23, align 4
  br label %116, !llvm.loop !13

130:                                              ; preds = %116
  %131 = load i8, ptr %13, align 1, !range !6, !noundef !7
  %132 = trunc i8 %131 to i1
  br i1 %132, label %170, label %133

133:                                              ; preds = %130
  call void @llvm.lifetime.start.p0(i64 8, ptr %27) #9
  %134 = load i32, ptr %10, align 4
  %135 = call ptr @table_open(i32 noundef %134, i32 noundef 0)
  store ptr %135, ptr %27, align 8
  %136 = load ptr, ptr %27, align 8
  %137 = getelementptr inbounds nuw %struct.RelationData, ptr %136, i32 0, i32 13
  %138 = load ptr, ptr %137, align 8
  %139 = getelementptr inbounds nuw %struct.FormData_pg_class, ptr %138, i32 0, i32 12
  %140 = load i32, ptr %139, align 4
  %141 = icmp ne i32 %140, 0
  br i1 %141, label %142, label %168

142:                                              ; preds = %133
  call void @llvm.lifetime.start.p0(i64 4, ptr %28) #9
  call void @llvm.lifetime.start.p0(i64 64, ptr %29) #9
  %143 = load ptr, ptr %27, align 8
  %144 = getelementptr inbounds nuw %struct.RelationData, ptr %143, i32 0, i32 13
  %145 = load ptr, ptr %144, align 8
  %146 = getelementptr inbounds nuw %struct.FormData_pg_class, ptr %145, i32 0, i32 12
  %147 = load i32, ptr %146, align 4
  %148 = call i32 @toast_get_valid_index(i32 noundef %147, i32 noundef 0)
  store i32 %148, ptr %28, align 4
  %149 = getelementptr inbounds [64 x i8], ptr %29, i64 0, i64 0
  %150 = load i32, ptr %10, align 4
  %151 = call i32 (ptr, i64, ptr, ...) @pg_snprintf(ptr noundef %149, i64 noundef 64, ptr noundef @.str.21, i32 noundef %150)
  %152 = load ptr, ptr %27, align 8
  %153 = getelementptr inbounds nuw %struct.RelationData, ptr %152, i32 0, i32 13
  %154 = load ptr, ptr %153, align 8
  %155 = getelementptr inbounds nuw %struct.FormData_pg_class, ptr %154, i32 0, i32 12
  %156 = load i32, ptr %155, align 4
  %157 = getelementptr inbounds [64 x i8], ptr %29, i64 0, i64 0
  call void @RenameRelationInternal(i32 noundef %156, ptr noundef %157, i1 noundef zeroext true, i1 noundef zeroext false)
  %158 = getelementptr inbounds [64 x i8], ptr %29, i64 0, i64 0
  %159 = load i32, ptr %10, align 4
  %160 = call i32 (ptr, i64, ptr, ...) @pg_snprintf(ptr noundef %158, i64 noundef 64, ptr noundef @.str.22, i32 noundef %159)
  %161 = load i32, ptr %28, align 4
  %162 = getelementptr inbounds [64 x i8], ptr %29, i64 0, i64 0
  call void @RenameRelationInternal(i32 noundef %161, ptr noundef %162, i1 noundef zeroext true, i1 noundef zeroext true)
  call void @CommandCounterIncrement()
  %163 = load ptr, ptr %27, align 8
  %164 = getelementptr inbounds nuw %struct.RelationData, ptr %163, i32 0, i32 13
  %165 = load ptr, ptr %164, align 8
  %166 = getelementptr inbounds nuw %struct.FormData_pg_class, ptr %165, i32 0, i32 12
  %167 = load i32, ptr %166, align 4
  call void @ResetRelRewrite(i32 noundef %167)
  call void @llvm.lifetime.end.p0(i64 64, ptr %29) #9
  call void @llvm.lifetime.end.p0(i64 4, ptr %28) #9
  br label %168

168:                                              ; preds = %142, %133
  %169 = load ptr, ptr %27, align 8
  call void @relation_close(ptr noundef %169, i32 noundef 0)
  call void @llvm.lifetime.end.p0(i64 8, ptr %27) #9
  br label %170

170:                                              ; preds = %168, %130
  %171 = load i8, ptr %12, align 1, !range !6, !noundef !7
  %172 = trunc i8 %171 to i1
  br i1 %172, label %178, label %173

173:                                              ; preds = %170
  call void @llvm.lifetime.start.p0(i64 8, ptr %30) #9
  %174 = load i32, ptr %10, align 4
  %175 = call ptr @table_open(i32 noundef %174, i32 noundef 0)
  store ptr %175, ptr %30, align 8
  %176 = load ptr, ptr %30, align 8
  call void @RelationClearMissing(ptr noundef %176)
  %177 = load ptr, ptr %30, align 8
  call void @relation_close(ptr noundef %177, i32 noundef 0)
  call void @llvm.lifetime.end.p0(i64 8, ptr %30) #9
  br label %178

178:                                              ; preds = %173, %170
  call void @llvm.lifetime.end.p0(i64 4, ptr %23) #9
  call void @llvm.lifetime.end.p0(i64 8, ptr %22) #9
  call void @llvm.lifetime.end.p0(i64 4, ptr %21) #9
  call void @llvm.lifetime.end.p0(i64 16, ptr %20) #9
  call void @llvm.lifetime.end.p0(i64 12, ptr %19) #9
  ret void
}