; Function Attrs: nounwind uwtable
define dso_local void @finish_heap_swap(i32 noundef %0, i32 noundef %1, i1 noundef zeroext %2, i1 noundef zeroext %3, i1 noundef zeroext %4, i1 noundef zeroext %5, i32 noundef %6, i32 noundef %7, i8 noundef signext %8) local_unnamed_addr #0 {
  %10 = alloca %struct.ObjectAddress, align 4
  %11 = alloca [4 x i32], align 16
  %12 = alloca %struct.ReindexParams, align 8
  %13 = alloca [64 x i8], align 16
  call void @llvm.lifetime.start.p0(i64 12, ptr nonnull %10) #7
  call void @llvm.lifetime.start.p0(i64 16, ptr nonnull %11) #7
  call void @llvm.lifetime.start.p0(i64 8, ptr nonnull %12) #7
  store i64 0, ptr %12, align 8
  tail call void @pgstat_progress_update_param(i32 noundef 1, i64 noundef 5) #7
  call void @llvm.memset.p0.i64(ptr noundef nonnull align 16 dereferenceable(16) %11, i8 0, i64 16, i1 false)
  %14 = icmp eq i32 %0, 1259
  call fastcc void @swap_relation_files(i32 noundef %0, i32 noundef %1, i1 noundef zeroext %14, i1 noundef zeroext %3, i1 noundef zeroext %5, i32 noundef %6, i32 noundef %7, ptr noundef %11)
  br i1 %2, label %15, label %16

15:                                               ; preds = %9
  call void @CacheInvalidateCatalog(i32 noundef %0) #7
  br label %16

16:                                               ; preds = %15, %9
  %spec.select = select i1 %4, i32 6, i32 2
  switch i8 %8, label %21 [
    i8 117, label %17
    i8 112, label %19
  ]

17:                                               ; preds = %16
  %18 = or disjoint i32 %spec.select, 8
  br label %21

19:                                               ; preds = %16
  %20 = or disjoint i32 %spec.select, 16
  br label %21

21:                                               ; preds = %16, %19, %17
  %.1 = phi i32 [ %18, %17 ], [ %20, %19 ], [ %spec.select, %16 ]
  call void @pgstat_progress_update_param(i32 noundef 1, i64 noundef 6) #7
  %22 = call zeroext i1 @reindex_relation(ptr noundef null, i32 noundef %0, i32 noundef %.1, ptr noundef nonnull %12) #7
  call void @pgstat_progress_update_param(i32 noundef 1, i64 noundef 7) #7
  br i1 %14, label %23, label %38

23:                                               ; preds = %21
  %24 = call ptr @table_open(i32 noundef 1259, i32 noundef 3) #7
  %25 = call ptr @SearchSysCacheCopy(i32 noundef 57, i64 noundef 1259, i64 noundef 0, i64 noundef 0, i64 noundef 0) #7
  %.not = icmp eq ptr %25, null
  br i1 %.not, label %26, label %29

26:                                               ; preds = %23
  %27 = call zeroext i1 @errstart_cold(i32 noundef 21, ptr noundef null) #9
  call void @llvm.assume(i1 %27)
  %28 = call i32 (ptr, ...) @errmsg_internal(ptr noundef nonnull @.str.18, i32 noundef 1259) #7
  call void @errfinish(ptr noundef nonnull @.str.2, i32 noundef 1538, ptr noundef nonnull @__func__.finish_heap_swap) #7
  unreachable

29:                                               ; preds = %23
  %30 = getelementptr i8, ptr %25, i64 16
  %.val = load ptr, ptr %30, align 8
  %31 = getelementptr inbounds nuw i8, ptr %.val, i64 22
  %32 = load i8, ptr %31, align 2
  %33 = zext i8 %32 to i64
  %34 = getelementptr inbounds nuw i8, ptr %.val, i64 %33
  %35 = getelementptr inbounds nuw i8, ptr %34, i64 132
  store i32 %6, ptr %35, align 4
  %36 = getelementptr inbounds nuw i8, ptr %34, i64 136
  store i32 %7, ptr %36, align 4
  %37 = getelementptr inbounds nuw i8, ptr %25, i64 4
  call void @CatalogTupleUpdate(ptr noundef %24, ptr noundef nonnull %37, ptr noundef nonnull %25) #7
  call void @table_close(ptr noundef %24, i32 noundef 3) #7
  br label %38

38:                                               ; preds = %29, %21
  store i32 1259, ptr %10, align 4
  %39 = getelementptr inbounds nuw i8, ptr %10, i64 4
  store i32 %1, ptr %39, align 4
  %40 = getelementptr inbounds nuw i8, ptr %10, i64 8
  store i32 0, ptr %40, align 4
  call void @performDeletion(ptr noundef nonnull %10, i32 noundef 0, i32 noundef 1) #7
  %41 = load i32, ptr %11, align 16
  %.not5254 = icmp eq i32 %41, 0
  br i1 %.not5254, label %._crit_edge, label %.lr.ph

.lr.ph:                                           ; preds = %38, %.lr.ph
  %42 = phi i32 [ %46, %.lr.ph ], [ %41, %38 ]
  %.04755 = phi i32 [ %43, %.lr.ph ], [ 0, %38 ]
  call void @RelationMapRemoveMapping(i32 noundef %42) #7
  %43 = add i32 %.04755, 1
  %44 = sext i32 %43 to i64
  %45 = getelementptr inbounds [4 x i32], ptr %11, i64 0, i64 %44
  %46 = load i32, ptr %45, align 4
  %.not52 = icmp eq i32 %46, 0
  br i1 %.not52, label %._crit_edge, label %.lr.ph, !llvm.loop !7

._crit_edge:                                      ; preds = %.lr.ph, %38
  br i1 %3, label %64, label %47

47:                                               ; preds = %._crit_edge
  %48 = call ptr @table_open(i32 noundef %0, i32 noundef 0) #7
  %49 = getelementptr inbounds nuw i8, ptr %48, i64 56
  %50 = load ptr, ptr %49, align 8
  %51 = getelementptr inbounds nuw i8, ptr %50, i64 108
  %52 = load i32, ptr %51, align 4
  %.not53 = icmp eq i32 %52, 0
  br i1 %.not53, label %63, label %53

53:                                               ; preds = %47
  call void @llvm.lifetime.start.p0(i64 64, ptr nonnull %13) #7
  %54 = call i32 @toast_get_valid_index(i32 noundef %52, i32 noundef 0) #7
  %55 = call i32 (ptr, i64, ptr, ...) @pg_snprintf(ptr noundef nonnull %13, i64 noundef 64, ptr noundef nonnull @.str.21, i32 noundef %0) #7
  %56 = load ptr, ptr %49, align 8
  %57 = getelementptr inbounds nuw i8, ptr %56, i64 108
  %58 = load i32, ptr %57, align 4
  call void @RenameRelationInternal(i32 noundef %58, ptr noundef nonnull %13, i1 noundef zeroext true, i1 noundef zeroext false) #7
  %59 = call i32 (ptr, i64, ptr, ...) @pg_snprintf(ptr noundef nonnull %13, i64 noundef 64, ptr noundef nonnull @.str.22, i32 noundef %0) #7
  call void @RenameRelationInternal(i32 noundef %54, ptr noundef nonnull %13, i1 noundef zeroext true, i1 noundef zeroext true) #7
  call void @CommandCounterIncrement() #7
  %60 = load ptr, ptr %49, align 8
  %61 = getelementptr inbounds nuw i8, ptr %60, i64 108
  %62 = load i32, ptr %61, align 4
  call void @ResetRelRewrite(i32 noundef %62) #7
  call void @llvm.lifetime.end.p0(i64 64, ptr nonnull %13) #7
  br label %63

63:                                               ; preds = %53, %47
  call void @relation_close(ptr noundef nonnull %48, i32 noundef 0) #7
  br label %64

64:                                               ; preds = %63, %._crit_edge
  br i1 %2, label %67, label %65

65:                                               ; preds = %64
  %66 = call ptr @table_open(i32 noundef %0, i32 noundef 0) #7
  call void @RelationClearMissing(ptr noundef %66) #7
  call void @relation_close(ptr noundef %66, i32 noundef 0) #7
  br label %67

67:                                               ; preds = %65, %64
  call void @llvm.lifetime.end.p0(i64 8, ptr nonnull %12) #7
  call void @llvm.lifetime.end.p0(i64 16, ptr nonnull %11) #7
  call void @llvm.lifetime.end.p0(i64 12, ptr nonnull %10) #7
  ret void
}